target datalayout = "e-m:e-p270:32:32-p271:32:32-p272:64:64-i64:64-i128:128-f80:128-n8:16:32:64-S128"
target triple = "x86_64-pc-linux-gnu"

%struct._priv_exr_context_t = type { i8, i8, i8, i8, i8, i8, i8, i8, %struct.exr_attr_string_t, %struct.exr_attr_string_t, ptr, ptr, ptr, ptr, ptr, ptr, ptr, ptr, i32, i32, i32, i32, i32, float, ptr, ptr, ptr, i64, ptr, ptr, i64, i32, i32, i32, i32, %struct._priv_exr_part_t, ptr, ptr, %struct.exr_attribute_list, %union.pthread_mutex_t, i8, i8, [2 x i8], i32 }
%struct.exr_attr_string_t = type { i32, i32, ptr }
%struct._priv_exr_part_t = type { i32, i32, %struct.exr_attribute_list, ptr, ptr, ptr, ptr, ptr, ptr, ptr, ptr, ptr, ptr, ptr, ptr, ptr, ptr, %struct.exr_attr_box2i_t, %struct.exr_attr_box2i_t, i32, i32, i32, float, i32, i32, ptr, ptr, ptr, ptr, i64, i16, i16, i32, i64, i64 }
%struct.exr_attr_box2i_t = type { %struct.exr_attr_v2i_t, %struct.exr_attr_v2i_t }
%struct.exr_attr_v2i_t = type { i32, i32 }
%struct.exr_attribute_list = type { i32, i32, ptr, ptr }
%union.pthread_mutex_t = type { %struct.__pthread_mutex_s }
%struct.__pthread_mutex_s = type { i32, i32, i32, i32, i32, i16, i16, %struct.__pthread_internal_list }
%struct.__pthread_internal_list = type { ptr, ptr }
%struct.exr_attribute_t = type { ptr, ptr, i8, i8, [2 x i8], i32, %union.anon }
%union.anon = type { double }

@.str = private unnamed_addr constant [29 x i8] c"Part index (%d) out of range\00", align 1
@.str.30 = private unnamed_addr constant [43 x i8] c"No input value for setting '%s', type '%s'\00", align 1
@.str.58 = private unnamed_addr constant [66 x i8] c"'%s' requested type 'keycode', but stored attributes is type '%s'\00", align 1
@.str.59 = private unnamed_addr constant [8 x i8] c"keycode\00", align 1

; Function Attrs: inlinehint nounwind uwtable
define internal void @internal_exr_unlock(ptr noundef %0) #2 {
  %2 = alloca ptr, align 8
  %3 = alloca ptr, align 8
  store ptr %0, ptr %2, align 8, !tbaa !3
  call void @llvm.lifetime.start.p0(i64 8, ptr %3) #8
  %4 = load ptr, ptr %2, align 8, !tbaa !3
  %5 = ptrtoint ptr %4 to i64
  %6 = inttoptr i64 %5 to ptr
  store ptr %6, ptr %3, align 8, !tbaa !3
  %7 = load ptr, ptr %3, align 8, !tbaa !3
  %8 = getelementptr inbounds nuw %struct._priv_exr_context_t, ptr %7, i32 0, i32 39
  %9 = call i32 @pthread_mutex_unlock(ptr noundef %8) #8
  call void @llvm.lifetime.end.p0(i64 8, ptr %3) #8
  ret void
}

; Function Attrs: inlinehint nounwind uwtable
define internal void @internal_exr_lock(ptr noundef %0) #2 {
  %2 = alloca ptr, align 8
  %3 = alloca ptr, align 8
  store ptr %0, ptr %2, align 8, !tbaa !3
  call void @llvm.lifetime.start.p0(i64 8, ptr %3) #8
  %4 = load ptr, ptr %2, align 8, !tbaa !3
  %5 = ptrtoint ptr %4 to i64
  %6 = inttoptr i64 %5 to ptr
  store ptr %6, ptr %3, align 8, !tbaa !3
  %7 = load ptr, ptr %3, align 8, !tbaa !3
  %8 = getelementptr inbounds nuw %struct._priv_exr_context_t, ptr %7, i32 0, i32 39
  %9 = call i32 @pthread_mutex_lock(ptr noundef %8) #8
  call void @llvm.lifetime.end.p0(i64 8, ptr %3) #8
  ret void
}

; Function Attrs: nounwind uwtable
define i32 @exr_attr_set_keycode(ptr noundef %0, i32 noundef %1, ptr noundef %2, ptr noundef %3) #0 {
  %5 = alloca i32, align 4
  %6 = alloca ptr, align 8
  %7 = alloca i32, align 4
  %8 = alloca ptr, align 8
  %9 = alloca ptr, align 8
  %10 = alloca ptr, align 8
  %11 = alloca i32, align 4
  %12 = alloca ptr, align 8
  %13 = alloca i32, align 4
  store ptr %0, ptr %6, align 8, !tbaa !3
  store i32 %1, ptr %7, align 4, !tbaa !8
  store ptr %2, ptr %8, align 8, !tbaa !36
  store ptr %3, ptr %9, align 8, !tbaa !35
  call void @llvm.lifetime.start.p0(i64 8, ptr %10) #8
  store ptr null, ptr %10, align 8, !tbaa !35
  call void @llvm.lifetime.start.p0(i64 4, ptr %11) #8
  store i32 0, ptr %11, align 4, !tbaa !8
  call void @llvm.lifetime.start.p0(i64 8, ptr %12) #8
  %14 = load ptr, ptr %6, align 8, !tbaa !3
  %15 = icmp ne ptr %14, null
  br i1 %15, label %17, label %16

16:                                               ; preds = %4
  store i32 2, ptr %5, align 4
  store i32 1, ptr %13, align 4
  br label %143

17:                                               ; preds = %4
  %18 = load ptr, ptr %6, align 8, !tbaa !3
  call void @internal_exr_lock(ptr noundef %18)
  %19 = load i32, ptr %7, align 4, !tbaa !8
  %20 = icmp slt i32 %19, 0
  br i1 %20, label %27, label %21

21:                                               ; preds = %17
  %22 = load i32, ptr %7, align 4, !tbaa !8
  %23 = load ptr, ptr %6, align 8, !tbaa !3
  %24 = getelementptr inbounds nuw %struct._priv_exr_context_t, ptr %23, i32 0, i32 34
  %25 = load i32, ptr %24, align 4, !tbaa !26
  %26 = icmp sge i32 %22, %25
  br i1 %26, label %27, label %35

27:                                               ; preds = %21, %17
  %28 = load ptr, ptr %6, align 8, !tbaa !3
  call void @internal_exr_unlock(ptr noundef %28)
  %29 = load ptr, ptr %6, align 8, !tbaa !3
  %30 = getelementptr inbounds nuw %struct._priv_exr_context_t, ptr %29, i32 0, i32 14
  %31 = load ptr, ptr %30, align 8, !tbaa !27
  %32 = load ptr, ptr %6, align 8, !tbaa !3
  %33 = load i32, ptr %7, align 4, !tbaa !8
  %34 = call i32 (ptr, i32, ptr, ...) %31(ptr noundef %32, i32 noundef 4, ptr noundef @.str, i32 noundef %33)
  store i32 %34, ptr %5, align 4
  store i32 1, ptr %13, align 4
  br label %143

35:                                               ; preds = %21
  %36 = load ptr, ptr %6, align 8, !tbaa !3
  %37 = getelementptr inbounds nuw %struct._priv_exr_context_t, ptr %36, i32 0, i32 37
  %38 = load ptr, ptr %37, align 8, !tbaa !28
  %39 = load i32, ptr %7, align 4, !tbaa !8
  %40 = sext i32 %39 to i64
  %41 = getelementptr inbounds ptr, ptr %38, i64 %40
  %42 = load ptr, ptr %41, align 8, !tbaa !29
  store ptr %42, ptr %12, align 8, !tbaa !29
  %43 = load ptr, ptr %6, align 8, !tbaa !3
  %44 = getelementptr inbounds nuw %struct._priv_exr_context_t, ptr %43, i32 0, i32 0
  %45 = load i8, ptr %44, align 8, !tbaa !12
  %46 = zext i8 %45 to i32
  %47 = icmp eq i32 %46, 0
  br i1 %47, label %48, label %55

48:                                               ; preds = %35
  %49 = load ptr, ptr %6, align 8, !tbaa !3
  call void @internal_exr_unlock(ptr noundef %49)
  %50 = load ptr, ptr %6, align 8, !tbaa !3
  %51 = getelementptr inbounds nuw %struct._priv_exr_context_t, ptr %50, i32 0, i32 12
  %52 = load ptr, ptr %51, align 8, !tbaa !31
  %53 = load ptr, ptr %6, align 8, !tbaa !3
  %54 = call i32 %52(ptr noundef %53, i32 noundef 8)
  store i32 %54, ptr %5, align 4
  store i32 1, ptr %13, align 4
  br label %143

55:                                               ; preds = %35
  %56 = load ptr, ptr %6, align 8, !tbaa !3
  %57 = getelementptr inbounds nuw %struct._priv_exr_context_t, ptr %56, i32 0, i32 0
  %58 = load i8, ptr %57, align 8, !tbaa !12
  %59 = zext i8 %58 to i32
  %60 = icmp eq i32 %59, 3
  br i1 %60, label %61, label %68

61:                                               ; preds = %55
  %62 = load ptr, ptr %6, align 8, !tbaa !3
  call void @internal_exr_unlock(ptr noundef %62)
  %63 = load ptr, ptr %6, align 8, !tbaa !3
  %64 = getelementptr inbounds nuw %struct._priv_exr_context_t, ptr %63, i32 0, i32 12
  %65 = load ptr, ptr %64, align 8, !tbaa !31
  %66 = load ptr, ptr %6, align 8, !tbaa !3
  %67 = call i32 %65(ptr noundef %66, i32 noundef 21)
  store i32 %67, ptr %5, align 4
  store i32 1, ptr %13, align 4
  br label %143

68:                                               ; preds = %55
  %69 = load ptr, ptr %6, align 8, !tbaa !3
  %70 = load ptr, ptr %12, align 8, !tbaa !29
  %71 = getelementptr inbounds nuw %struct._priv_exr_part_t, ptr %70, i32 0, i32 2
  %72 = load ptr, ptr %8, align 8, !tbaa !36
  %73 = call i32 @exr_attr_list_find_by_name(ptr noundef %69, ptr noundef %71, ptr noundef %72, ptr noundef %10)
  store i32 %73, ptr %11, align 4, !tbaa !8
  %74 = load i32, ptr %11, align 4, !tbaa !8
  %75 = icmp eq i32 %74, 15
  br i1 %75, label %76, label %97

76:                                               ; preds = %68
  %77 = load ptr, ptr %6, align 8, !tbaa !3
  %78 = getelementptr inbounds nuw %struct._priv_exr_context_t, ptr %77, i32 0, i32 0
  %79 = load i8, ptr %78, align 8, !tbaa !12
  %80 = zext i8 %79 to i32
  %81 = icmp ne i32 %80, 1
  br i1 %81, label %82, label %91

82:                                               ; preds = %76
  %83 = load ptr, ptr %6, align 8, !tbaa !3
  %84 = getelementptr inbounds nuw %struct._priv_exr_context_t, ptr %83, i32 0, i32 0
  %85 = load i8, ptr %84, align 8, !tbaa !12
  %86 = zext i8 %85 to i32
  %87 = icmp ne i32 %86, 4
  br i1 %87, label %88, label %91

88:                                               ; preds = %82
  %89 = load ptr, ptr %6, align 8, !tbaa !3
  call void @internal_exr_unlock(ptr noundef %89)
  %90 = load i32, ptr %11, align 4, !tbaa !8
  store i32 %90, ptr %5, align 4
  store i32 1, ptr %13, align 4
  br label %143

91:                                               ; preds = %82, %76
  %92 = load ptr, ptr %6, align 8, !tbaa !3
  %93 = load ptr, ptr %12, align 8, !tbaa !29
  %94 = getelementptr inbounds nuw %struct._priv_exr_part_t, ptr %93, i32 0, i32 2
  %95 = load ptr, ptr %8, align 8, !tbaa !36
  %96 = call i32 @exr_attr_list_add(ptr noundef %92, ptr noundef %94, ptr noundef %95, i32 noundef 11, i32 noundef 0, ptr noundef null, ptr noundef %10)
  store i32 %96, ptr %11, align 4, !tbaa !8
  br label %121

97:                                               ; preds = %68
  %98 = load i32, ptr %11, align 4, !tbaa !8
  %99 = icmp eq i32 %98, 0
  br i1 %99, label %100, label %117

100:                                              ; preds = %97
  %101 = load ptr, ptr %10, align 8, !tbaa !35
  %102 = getelementptr inbounds nuw %struct.exr_attribute_t, ptr %101, i32 0, i32 5
  %103 = load i32, ptr %102, align 4, !tbaa !39
  %104 = icmp ne i32 %103, 11
  br i1 %104, label %105, label %116

105:                                              ; preds = %100
  %106 = load ptr, ptr %6, align 8, !tbaa !3
  call void @internal_exr_unlock(ptr noundef %106)
  %107 = load ptr, ptr %6, align 8, !tbaa !3
  %108 = getelementptr inbounds nuw %struct._priv_exr_context_t, ptr %107, i32 0, i32 14
  %109 = load ptr, ptr %108, align 8, !tbaa !27
  %110 = load ptr, ptr %6, align 8, !tbaa !3
  %111 = load ptr, ptr %8, align 8, !tbaa !36
  %112 = load ptr, ptr %10, align 8, !tbaa !35
  %113 = getelementptr inbounds nuw %struct.exr_attribute_t, ptr %112, i32 0, i32 1
  %114 = load ptr, ptr %113, align 8, !tbaa !41
  %115 = call i32 (ptr, i32, ptr, ...) %109(ptr noundef %110, i32 noundef 16, ptr noundef @.str.58, ptr noundef %111, ptr noundef %114)
  store i32 %115, ptr %5, align 4
  store i32 1, ptr %13, align 4
  br label %143

116:                                              ; preds = %100
  br label %120

117:                                              ; preds = %97
  %118 = load ptr, ptr %6, align 8, !tbaa !3
  call void @internal_exr_unlock(ptr noundef %118)
  %119 = load i32, ptr %11, align 4, !tbaa !8
  store i32 %119, ptr %5, align 4
  store i32 1, ptr %13, align 4
  br label %143

120:                                              ; preds = %116
  br label %121

121:                                              ; preds = %120, %91
  %122 = load ptr, ptr %9, align 8, !tbaa !35
  %123 = icmp ne ptr %122, null
  br i1 %123, label %132, label %124

124:                                              ; preds = %121
  %125 = load ptr, ptr %6, align 8, !tbaa !3
  call void @internal_exr_unlock(ptr noundef %125)
  %126 = load ptr, ptr %6, align 8, !tbaa !3
  %127 = getelementptr inbounds nuw %struct._priv_exr_context_t, ptr %126, i32 0, i32 14
  %128 = load ptr, ptr %127, align 8, !tbaa !27
  %129 = load ptr, ptr %6, align 8, !tbaa !3
  %130 = load ptr, ptr %8, align 8, !tbaa !36
  %131 = call i32 (ptr, i32, ptr, ...) %128(ptr noundef %129, i32 noundef 3, ptr noundef @.str.30, ptr noundef %130, ptr noundef @.str.59)
  store i32 %131, ptr %5, align 4
  store i32 1, ptr %13, align 4
  br label %143

132:                                              ; preds = %121
  %133 = load i32, ptr %11, align 4, !tbaa !8
  %134 = icmp eq i32 %133, 0
  br i1 %134, label %135, label %140

135:                                              ; preds = %132
  %136 = load ptr, ptr %10, align 8, !tbaa !35
  %137 = getelementptr inbounds nuw %struct.exr_attribute_t, ptr %136, i32 0, i32 6
  %138 = load ptr, ptr %137, align 8, !tbaa !42
  %139 = load ptr, ptr %9, align 8, !tbaa !35
  call void @llvm.memcpy.p0.p0.i64(ptr align 1 %138, ptr align 1 %139, i64 28, i1 false), !tbaa.struct !74
  br label %140

140:                                              ; preds = %135, %132
  %141 = load ptr, ptr %6, align 8, !tbaa !3
  call void @internal_exr_unlock(ptr noundef %141)
  %142 = load i32, ptr %11, align 4, !tbaa !8
  store i32 %142, ptr %5, align 4
  store i32 1, ptr %13, align 4
  br label %143

143:                                              ; preds = %140, %124, %117, %105, %88, %61, %48, %27, %16
  call void @llvm.lifetime.end.p0(i64 8, ptr %12) #8
  call void @llvm.lifetime.end.p0(i64 4, ptr %11) #8
  call void @llvm.lifetime.end.p0(i64 8, ptr %10) #8
  %144 = load i32, ptr %5, align 4
  ret i32 %144
}